target datalayout = "e-m:e-p270:32:32-p271:32:32-p272:64:64-i64:64-i128:128-f80:128-n8:16:32:64-S128"
target triple = "x86_64-unknown-linux-gnu"

%"class.YAML::NodeBuilder" = type { %"class.YAML::EventHandler", %"class.std::shared_ptr", ptr, %"class.std::vector", %"class.std::vector", %"class.std::vector.0", i64 }
%"class.YAML::EventHandler" = type { ptr }
%"class.std::shared_ptr" = type { %"class.std::__shared_ptr" }
%"class.std::__shared_ptr" = type { ptr, %"class.std::__shared_count" }
%"class.std::__shared_count" = type { ptr }
%"class.std::vector" = type { %"struct.std::_Vector_base" }
%"struct.std::_Vector_base" = type { %"struct.std::_Vector_base<YAML::detail::node *, std::allocator<YAML::detail::node *>>::_Vector_impl" }
%"struct.std::_Vector_base<YAML::detail::node *, std::allocator<YAML::detail::node *>>::_Vector_impl" = type { %"struct.std::_Vector_base<YAML::detail::node *, std::allocator<YAML::detail::node *>>::_Vector_impl_data" }
%"struct.std::_Vector_base<YAML::detail::node *, std::allocator<YAML::detail::node *>>::_Vector_impl_data" = type { ptr, ptr, ptr }
%"class.std::vector.0" = type { %"struct.std::_Vector_base.1" }
%"struct.std::_Vector_base.1" = type { %"struct.std::_Vector_base<std::pair<YAML::detail::node *, bool>, std::allocator<std::pair<YAML::detail::node *, bool>>>::_Vector_impl" }
%"struct.std::_Vector_base<std::pair<YAML::detail::node *, bool>, std::allocator<std::pair<YAML::detail::node *, bool>>>::_Vector_impl" = type { %"struct.std::_Vector_base<std::pair<YAML::detail::node *, bool>, std::allocator<std::pair<YAML::detail::node *, bool>>>::_Vector_impl_data" }
%"struct.std::_Vector_base<std::pair<YAML::detail::node *, bool>, std::allocator<std::pair<YAML::detail::node *, bool>>>::_Vector_impl_data" = type { ptr, ptr, ptr }

; Function Attrs: mustprogress uwtable
define void @_ZN4YAML11NodeBuilder8OnMapEndEv(ptr noundef nonnull align 8 dereferenceable(112) %this) unnamed_addr #0 align 2 {
entry:
  %this.addr = alloca ptr, align 8
  store ptr %this, ptr %this.addr, align 8
  %this1 = load ptr, ptr %this.addr, align 8
  %m_mapDepth = getelementptr inbounds %"class.YAML::NodeBuilder", ptr %this1, i32 0, i32 6
  %0 = load i64, ptr %m_mapDepth, align 8
  %dec = add i64 %0, -1
  store i64 %dec, ptr %m_mapDepth, align 8
  call void @_ZN4YAML11NodeBuilder3PopEv(ptr noundef nonnull align 8 dereferenceable(112) %this1)
  ret void
}