; Function Attrs: mustprogress uwtable
define void @_ZN4YAML11NodeBuilder8OnMapEndEv(ptr nocapture noundef nonnull align 8 dereferenceable(112) %this) unnamed_addr #0 align 2 {
entry:
  %m_mapDepth = getelementptr inbounds i8, ptr %this, i64 104
  %0 = load i64, ptr %m_mapDepth, align 8
  %dec = add i64 %0, -1
  store i64 %dec, ptr %m_mapDepth, align 8
  tail call void @_ZN4YAML11NodeBuilder3PopEv(ptr noundef nonnull align 8 dereferenceable(112) %this)
  ret void
}